; Function Attrs: nounwind uwtable
define i32 @Abc_AigCleanup(ptr noundef captures(none) %0) local_unnamed_addr #0 {
  %2 = getelementptr inbounds nuw i8, ptr %0, i64 28
  %3 = load i32, ptr %2, align 4
  %4 = tail call noalias dereferenceable_or_null(16) ptr @malloc(i64 noundef 16) #20
  %5 = getelementptr inbounds nuw i8, ptr %4, i64 4
  store i32 0, ptr %5, align 4
  store i32 100, ptr %4, align 8
  %6 = tail call noalias dereferenceable_or_null(800) ptr @malloc(i64 noundef 800) #20
  %7 = getelementptr inbounds nuw i8, ptr %4, i64 8
  store ptr %6, ptr %7, align 8
  %8 = getelementptr inbounds nuw i8, ptr %0, i64 24
  %9 = load i32, ptr %8, align 8
  %10 = icmp sgt i32 %9, 0
  br i1 %10, label %.lr.ph27, label %.critedge

.lr.ph27:                                         ; preds = %1
  %11 = getelementptr inbounds nuw i8, ptr %0, i64 16
  br label %13

.preheader:                                       ; preds = %._crit_edge
  %.val.pre = load i32, ptr %5, align 4
  %.pre35.pre = load ptr, ptr %7, align 8
  %12 = icmp sgt i32 %.val.pre, 0
  br i1 %12, label %.lr.ph29, label %.critedge

.lr.ph29:                                         ; preds = %.preheader
  %wide.trip.count = zext nneg i32 %.val.pre to i64
  br label %52

13:                                               ; preds = %.lr.ph27, %._crit_edge
  %14 = phi i32 [ %9, %.lr.ph27 ], [ %49, %._crit_edge ]
  %indvars.iv = phi i64 [ 0, %.lr.ph27 ], [ %indvars.iv.next, %._crit_edge ]
  %15 = load ptr, ptr %11, align 8
  %16 = getelementptr inbounds nuw ptr, ptr %15, i64 %indvars.iv
  %.022 = load ptr, ptr %16, align 8
  %.not23 = icmp eq ptr %.022, null
  br i1 %.not23, label %._crit_edge, label %.lr.ph

.lr.ph:                                           ; preds = %13, %47
  %.024 = phi ptr [ %.0, %47 ], [ %.022, %13 ]
  %17 = getelementptr i8, ptr %.024, i64 44
  %.0.val = load i32, ptr %17, align 4
  %18 = icmp eq i32 %.0.val, 0
  br i1 %18, label %19, label %47

19:                                               ; preds = %.lr.ph
  %20 = load i32, ptr %5, align 4
  %21 = load i32, ptr %4, align 8
  %22 = icmp eq i32 %20, %21
  br i1 %22, label %23, label %.Vec_PtrGrow.exit11_crit_edge.i

.Vec_PtrGrow.exit11_crit_edge.i:                  ; preds = %19
  %.pre.i = load ptr, ptr %7, align 8
  br label %Vec_PtrPush.exit

23:                                               ; preds = %19
  %24 = icmp slt i32 %20, 16
  br i1 %24, label %25, label %32

25:                                               ; preds = %23
  %26 = load ptr, ptr %7, align 8
  %.not9.i.i = icmp eq ptr %26, null
  br i1 %.not9.i.i, label %29, label %27

27:                                               ; preds = %25
  %28 = tail call dereferenceable_or_null(128) ptr @realloc(ptr noundef nonnull %26, i64 noundef 128) #22
  br label %Vec_PtrGrow.exit.i

29:                                               ; preds = %25
  %30 = tail call noalias dereferenceable_or_null(128) ptr @malloc(i64 noundef 128) #20
  br label %Vec_PtrGrow.exit.i

Vec_PtrGrow.exit.i:                               ; preds = %29, %27
  %31 = phi ptr [ %28, %27 ], [ %30, %29 ]
  store ptr %31, ptr %7, align 8
  store i32 16, ptr %4, align 8
  br label %Vec_PtrPush.exit

32:                                               ; preds = %23
  %33 = shl nuw nsw i32 %20, 1
  %34 = load ptr, ptr %7, align 8
  %.not9.i10.i = icmp eq ptr %34, null
  %35 = zext nneg i32 %33 to i64
  %36 = shl nuw nsw i64 %35, 3
  br i1 %.not9.i10.i, label %39, label %37

37:                                               ; preds = %32
  %38 = tail call ptr @realloc(ptr noundef nonnull %34, i64 noundef %36) #22
  br label %41

39:                                               ; preds = %32
  %40 = tail call noalias ptr @malloc(i64 noundef %36) #20
  br label %41

41:                                               ; preds = %39, %37
  %42 = phi ptr [ %38, %37 ], [ %40, %39 ]
  store ptr %42, ptr %7, align 8
  store i32 %33, ptr %4, align 8
  br label %Vec_PtrPush.exit

Vec_PtrPush.exit:                                 ; preds = %.Vec_PtrGrow.exit11_crit_edge.i, %Vec_PtrGrow.exit.i, %41
  %43 = phi ptr [ %.pre.i, %.Vec_PtrGrow.exit11_crit_edge.i ], [ %42, %41 ], [ %31, %Vec_PtrGrow.exit.i ]
  %44 = add nsw i32 %20, 1
  store i32 %44, ptr %5, align 4
  %45 = sext i32 %20 to i64
  %46 = getelementptr inbounds ptr, ptr %43, i64 %45
  store ptr %.024, ptr %46, align 8
  br label %47

47:                                               ; preds = %.lr.ph, %Vec_PtrPush.exit
  %48 = getelementptr inbounds nuw i8, ptr %.024, i64 8
  %.0 = load ptr, ptr %48, align 8
  %.not = icmp eq ptr %.0, null
  br i1 %.not, label %._crit_edge.loopexit, label %.lr.ph, !llvm.loop !8

._crit_edge.loopexit:                             ; preds = %47
  %.pre = load i32, ptr %8, align 8
  br label %._crit_edge

._crit_edge:                                      ; preds = %._crit_edge.loopexit, %13
  %49 = phi i32 [ %.pre, %._crit_edge.loopexit ], [ %14, %13 ]
  %indvars.iv.next = add nuw nsw i64 %indvars.iv, 1
  %50 = sext i32 %49 to i64
  %51 = icmp slt i64 %indvars.iv.next, %50
  br i1 %51, label %13, label %.preheader, !llvm.loop !9

52:                                               ; preds = %.lr.ph29, %52
  %indvars.iv31 = phi i64 [ 0, %.lr.ph29 ], [ %indvars.iv.next32, %52 ]
  %53 = getelementptr inbounds nuw ptr, ptr %.pre35.pre, i64 %indvars.iv31
  %54 = load ptr, ptr %53, align 8
  tail call void @Abc_AigDeleteNode(ptr noundef %0, ptr noundef %54)
  %indvars.iv.next32 = add nuw nsw i64 %indvars.iv31, 1
  %exitcond.not = icmp eq i64 %indvars.iv.next32, %wide.trip.count
  br i1 %exitcond.not, label %.critedge.thread, label %52, !llvm.loop !10

.critedge:                                        ; preds = %1, %.preheader
  %.pre3539 = phi ptr [ %.pre35.pre, %.preheader ], [ %6, %1 ]
  %.not.i = icmp eq ptr %.pre3539, null
  br i1 %.not.i, label %Vec_PtrFree.exit, label %.critedge.thread

.critedge.thread:                                 ; preds = %52, %.critedge
  %.pre353942 = phi ptr [ %.pre3539, %.critedge ], [ %.pre35.pre, %52 ]
  tail call void @free(ptr noundef nonnull %.pre353942) #21
  br label %Vec_PtrFree.exit

Vec_PtrFree.exit:                                 ; preds = %.critedge, %.critedge.thread
  tail call void @free(ptr noundef nonnull %4) #21
  %55 = load i32, ptr %2, align 4
  %56 = sub nsw i32 %3, %55
  ret i32 %56
}